; Function Attrs: mustprogress uwtable
define dso_local void @_ZN5Truck8SetSpeedEf(ptr noundef nonnull readonly align 4 captures(none) dereferenceable(41) %0, float noundef %1) local_unnamed_addr #5 align 2 {
  %3 = getelementptr inbounds nuw i8, ptr %0, i64 24
  %.sroa.02.0.copyload = load i64, ptr %3, align 4
  tail call void @b2WheelJoint_SetMotorSpeed(i64 %.sroa.02.0.copyload, float noundef %1)
  %4 = getelementptr inbounds nuw i8, ptr %0, i64 32
  %.sroa.01.0.copyload = load i64, ptr %4, align 4
  tail call void @b2WheelJoint_SetMotorSpeed(i64 %.sroa.01.0.copyload, float noundef %1)
  %.sroa.0.0.copyload = load i64, ptr %3, align 4
  tail call void @b2Joint_WakeBodies(i64 %.sroa.0.0.copyload)
  ret void
}